target datalayout = "e-m:e-p270:32:32-p271:32:32-p272:64:64-i64:64-i128:128-f80:128-n8:16:32:64-S128"
target triple = "x86_64-pc-linux-gnu"

%"class.std::vector" = type { %"struct.std::_Vector_base" }
%"struct.std::_Vector_base" = type { %"struct.std::_Vector_base<pxrInternal_v0_24__pxrReserved__::TfToken, std::allocator<pxrInternal_v0_24__pxrReserved__::TfToken>>::_Vector_impl" }
%"struct.std::_Vector_base<pxrInternal_v0_24__pxrReserved__::TfToken, std::allocator<pxrInternal_v0_24__pxrReserved__::TfToken>>::_Vector_impl" = type { %"struct.std::_Vector_base<pxrInternal_v0_24__pxrReserved__::TfToken, std::allocator<pxrInternal_v0_24__pxrReserved__::TfToken>>::_Vector_impl_data" }
%"struct.std::_Vector_base<pxrInternal_v0_24__pxrReserved__::TfToken, std::allocator<pxrInternal_v0_24__pxrReserved__::TfToken>>::_Vector_impl_data" = type { ptr, ptr, ptr }

@_ZZN32pxrInternal_v0_24__pxrReserved__16UsdAPISchemaBase23GetSchemaAttributeNamesEbE10localNames = internal global %"class.std::vector" zeroinitializer, align 8
@_ZGVZN32pxrInternal_v0_24__pxrReserved__16UsdAPISchemaBase23GetSchemaAttributeNamesEbE10localNames = internal global i64 0, align 8
@__dso_handle = external hidden global i8
@_ZZN32pxrInternal_v0_24__pxrReserved__16UsdAPISchemaBase23GetSchemaAttributeNamesEbE8allNames = internal global %"class.std::vector" zeroinitializer, align 8
@_ZGVZN32pxrInternal_v0_24__pxrReserved__16UsdAPISchemaBase23GetSchemaAttributeNamesEbE8allNames = internal global i64 0, align 8

; Function Attrs: mustprogress nounwind uwtable
define linkonce_odr void @_ZNSt15__new_allocatorIN32pxrInternal_v0_24__pxrReserved__7TfTokenEEC2Ev(ptr noundef nonnull align 1 dereferenceable(1) %0) unnamed_addr #2 comdat align 2 {
  %2 = alloca ptr, align 8
  store ptr %0, ptr %2, align 8
  ret void
}

; Function Attrs: mustprogress nounwind uwtable
define linkonce_odr void @_ZNSt12_Vector_baseIN32pxrInternal_v0_24__pxrReserved__7TfTokenESaIS1_EE17_Vector_impl_dataC2Ev(ptr noundef nonnull align 8 dereferenceable(24) %0) unnamed_addr #2 comdat align 2 {
  %2 = alloca ptr, align 8
  store ptr %0, ptr %2, align 8
  %3 = load ptr, ptr %2, align 8
  %4 = getelementptr inbounds nuw %"struct.std::_Vector_base<pxrInternal_v0_24__pxrReserved__::TfToken, std::allocator<pxrInternal_v0_24__pxrReserved__::TfToken>>::_Vector_impl_data", ptr %3, i32 0, i32 0
  store ptr null, ptr %4, align 8
  %5 = getelementptr inbounds nuw %"struct.std::_Vector_base<pxrInternal_v0_24__pxrReserved__::TfToken, std::allocator<pxrInternal_v0_24__pxrReserved__::TfToken>>::_Vector_impl_data", ptr %3, i32 0, i32 1
  store ptr null, ptr %5, align 8
  %6 = getelementptr inbounds nuw %"struct.std::_Vector_base<pxrInternal_v0_24__pxrReserved__::TfToken, std::allocator<pxrInternal_v0_24__pxrReserved__::TfToken>>::_Vector_impl_data", ptr %3, i32 0, i32 2
  store ptr null, ptr %6, align 8
  ret void
}

; Function Attrs: mustprogress nounwind uwtable
define linkonce_odr void @_ZNSaIN32pxrInternal_v0_24__pxrReserved__7TfTokenEEC2Ev(ptr noundef nonnull align 1 dereferenceable(1) %0) unnamed_addr #2 comdat align 2 {
  %2 = alloca ptr, align 8
  store ptr %0, ptr %2, align 8
  %3 = load ptr, ptr %2, align 8
  call void @_ZNSt15__new_allocatorIN32pxrInternal_v0_24__pxrReserved__7TfTokenEEC2Ev(ptr noundef nonnull align 1 dereferenceable(1) %3) #5
  ret void
}

; Function Attrs: mustprogress nounwind uwtable
define linkonce_odr void @_ZNSt12_Vector_baseIN32pxrInternal_v0_24__pxrReserved__7TfTokenESaIS1_EE12_Vector_implC2Ev(ptr noundef nonnull align 8 dereferenceable(24) %0) unnamed_addr #2 comdat align 2 {
  %2 = alloca ptr, align 8
  store ptr %0, ptr %2, align 8
  %3 = load ptr, ptr %2, align 8
  call void @_ZNSaIN32pxrInternal_v0_24__pxrReserved__7TfTokenEEC2Ev(ptr noundef nonnull align 1 dereferenceable(1) %3) #5
  call void @_ZNSt12_Vector_baseIN32pxrInternal_v0_24__pxrReserved__7TfTokenESaIS1_EE17_Vector_impl_dataC2Ev(ptr noundef nonnull align 8 dereferenceable(24) %3) #5
  ret void
}

; Function Attrs: mustprogress nounwind uwtable
define linkonce_odr void @_ZNSt12_Vector_baseIN32pxrInternal_v0_24__pxrReserved__7TfTokenESaIS1_EEC2Ev(ptr noundef nonnull align 8 dereferenceable(24) %0) unnamed_addr #2 comdat align 2 {
  %2 = alloca ptr, align 8
  store ptr %0, ptr %2, align 8
  %3 = load ptr, ptr %2, align 8
  %4 = getelementptr inbounds nuw %"struct.std::_Vector_base", ptr %3, i32 0, i32 0
  call void @_ZNSt12_Vector_baseIN32pxrInternal_v0_24__pxrReserved__7TfTokenESaIS1_EE12_Vector_implC2Ev(ptr noundef nonnull align 8 dereferenceable(24) %4) #5
  ret void
}

; Function Attrs: mustprogress nounwind uwtable
define linkonce_odr void @_ZNSt6vectorIN32pxrInternal_v0_24__pxrReserved__7TfTokenESaIS1_EEC2Ev(ptr noundef nonnull align 8 dereferenceable(24) %0) unnamed_addr #2 comdat align 2 {
  %2 = alloca ptr, align 8
  store ptr %0, ptr %2, align 8
  %3 = load ptr, ptr %2, align 8
  call void @_ZNSt12_Vector_baseIN32pxrInternal_v0_24__pxrReserved__7TfTokenESaIS1_EEC2Ev(ptr noundef nonnull align 8 dereferenceable(24) %3) #5
  ret void
}

; Function Attrs: mustprogress uwtable
define noundef nonnull align 8 dereferenceable(24) ptr @_ZN32pxrInternal_v0_24__pxrReserved__16UsdAPISchemaBase23GetSchemaAttributeNamesEb(i1 noundef zeroext %0) #0 align 2 personality ptr @__gxx_personality_v0 {
  %2 = alloca ptr, align 8
  %3 = alloca i8, align 1
  %4 = alloca ptr, align 8
  %5 = alloca i32, align 4
  %6 = zext i1 %0 to i8
  store i8 %6, ptr %3, align 1
  %7 = load atomic i8, ptr @_ZGVZN32pxrInternal_v0_24__pxrReserved__16UsdAPISchemaBase23GetSchemaAttributeNamesEbE10localNames acquire, align 8
  %8 = icmp eq i8 %7, 0
  br i1 %8, label %9, label %14, !prof !4

9:                                                ; preds = %1
  %10 = call i32 @__cxa_guard_acquire(ptr @_ZGVZN32pxrInternal_v0_24__pxrReserved__16UsdAPISchemaBase23GetSchemaAttributeNamesEbE10localNames) #5
  %11 = icmp ne i32 %10, 0
  br i1 %11, label %12, label %14

12:                                               ; preds = %9
  call void @_ZNSt6vectorIN32pxrInternal_v0_24__pxrReserved__7TfTokenESaIS1_EEC2Ev(ptr noundef nonnull align 8 dereferenceable(24) @_ZZN32pxrInternal_v0_24__pxrReserved__16UsdAPISchemaBase23GetSchemaAttributeNamesEbE10localNames) #5
  %13 = call i32 @__cxa_atexit(ptr @_ZNSt6vectorIN32pxrInternal_v0_24__pxrReserved__7TfTokenESaIS1_EED2Ev, ptr @_ZZN32pxrInternal_v0_24__pxrReserved__16UsdAPISchemaBase23GetSchemaAttributeNamesEbE10localNames, ptr @__dso_handle) #5
  call void @__cxa_guard_release(ptr @_ZGVZN32pxrInternal_v0_24__pxrReserved__16UsdAPISchemaBase23GetSchemaAttributeNamesEbE10localNames) #5
  br label %14

14:                                               ; preds = %12, %9, %1
  %15 = load atomic i8, ptr @_ZGVZN32pxrInternal_v0_24__pxrReserved__16UsdAPISchemaBase23GetSchemaAttributeNamesEbE8allNames acquire, align 8
  %16 = icmp eq i8 %15, 0
  br i1 %16, label %17, label %25, !prof !4

17:                                               ; preds = %14
  %18 = call i32 @__cxa_guard_acquire(ptr @_ZGVZN32pxrInternal_v0_24__pxrReserved__16UsdAPISchemaBase23GetSchemaAttributeNamesEbE8allNames) #5
  %19 = icmp ne i32 %18, 0
  br i1 %19, label %20, label %25

20:                                               ; preds = %17
  %21 = invoke noundef nonnull align 8 dereferenceable(24) ptr @_ZN32pxrInternal_v0_24__pxrReserved__13UsdSchemaBase23GetSchemaAttributeNamesEb(i1 noundef zeroext true)
          to label %22 unwind label %29

22:                                               ; preds = %20
  invoke void @_ZNSt6vectorIN32pxrInternal_v0_24__pxrReserved__7TfTokenESaIS1_EEC2ERKS3_(ptr noundef nonnull align 8 dereferenceable(24) @_ZZN32pxrInternal_v0_24__pxrReserved__16UsdAPISchemaBase23GetSchemaAttributeNamesEbE8allNames, ptr noundef nonnull align 8 dereferenceable(24) %21)
          to label %23 unwind label %29

23:                                               ; preds = %22
  %24 = call i32 @__cxa_atexit(ptr @_ZNSt6vectorIN32pxrInternal_v0_24__pxrReserved__7TfTokenESaIS1_EED2Ev, ptr @_ZZN32pxrInternal_v0_24__pxrReserved__16UsdAPISchemaBase23GetSchemaAttributeNamesEbE8allNames, ptr @__dso_handle) #5
  call void @__cxa_guard_release(ptr @_ZGVZN32pxrInternal_v0_24__pxrReserved__16UsdAPISchemaBase23GetSchemaAttributeNamesEbE8allNames) #5
  br label %25

25:                                               ; preds = %23, %17, %14
  %26 = load i8, ptr %3, align 1
  %27 = trunc i8 %26 to i1
  br i1 %27, label %28, label %33

28:                                               ; preds = %25
  store ptr @_ZZN32pxrInternal_v0_24__pxrReserved__16UsdAPISchemaBase23GetSchemaAttributeNamesEbE8allNames, ptr %2, align 8
  br label %34

29:                                               ; preds = %22, %20
  %30 = landingpad { ptr, i32 }
          cleanup
  %31 = extractvalue { ptr, i32 } %30, 0
  store ptr %31, ptr %4, align 8
  %32 = extractvalue { ptr, i32 } %30, 1
  store i32 %32, ptr %5, align 4
  call void @__cxa_guard_abort(ptr @_ZGVZN32pxrInternal_v0_24__pxrReserved__16UsdAPISchemaBase23GetSchemaAttributeNamesEbE8allNames) #5
  br label %36

33:                                               ; preds = %25
  store ptr @_ZZN32pxrInternal_v0_24__pxrReserved__16UsdAPISchemaBase23GetSchemaAttributeNamesEbE10localNames, ptr %2, align 8
  br label %34

34:                                               ; preds = %33, %28
  %35 = load ptr, ptr %2, align 8
  ret ptr %35

36:                                               ; preds = %29
  %37 = load ptr, ptr %4, align 8
  %38 = load i32, ptr %5, align 4
  %39 = insertvalue { ptr, i32 } poison, ptr %37, 0
  %40 = insertvalue { ptr, i32 } %39, i32 %38, 1
  resume { ptr, i32 } %40
}